target datalayout = "e-m:e-p270:32:32-p271:32:32-p272:64:64-i64:64-i128:128-f80:128-n8:16:32:64-S128"
target triple = "x86_64-pc-linux-gnu"

%struct.pe_image_file_hdr = type { i32, i16, i16, i32, i32, i32, i16, i16 }
%struct.pe_image_optional_hdr64 = type { i16, i8, i8, i32, i32, i32, i32, i32, i64, i32, i32, i16, i16, i16, i16, i16, i16, i32, i32, i32, i32, i16, i16, i64, i64, i64, i64, i32, i32 }
%struct.pe_image_data_dir = type { i32, i32 }
%struct.cli_bc_ctx = type { i8, i16, i32, ptr, ptr, i32, i32, ptr, ptr, ptr, i32, i32, i64, ptr, ptr, ptr, %struct.cli_bc_hooks, %struct.cli_exe_info, [64 x i32], [64 x i32], i32, ptr, ptr, i32, i32, i32, i32, ptr, i32, ptr, ptr, i32, i32, i32, i32, i32, i32, ptr, ptr, ptr, ptr, ptr, ptr, ptr, i32, i32, i32, i32, ptr, ptr, ptr, ptr, ptr, i32, i32, i32, i32, ptr, ptr, ptr, ptr, i32, i32, i32, ptr, i32, ptr, i32, i32, ptr, i32 }
%struct.cli_bc_hooks = type { ptr, ptr, ptr, ptr, ptr }
%struct.cli_exe_info = type { ptr, i32, i32, i16, i32, i32, %struct.cli_hashset, i32, i32, i32, i32, i32, i32, i32, i32, i32, %struct.pe_image_file_hdr, %union.anon, [16 x %struct.pe_image_data_dir] }
%struct.cli_hashset = type { ptr, ptr, ptr, i32, i32, i32, i32 }
%union.anon = type { %struct.pe_image_optional_hdr64 }

; Function Attrs: nounwind uwtable
define i32 @cli_bytecode_context_setpdf(ptr noundef %0, i32 noundef %1, i32 noundef %2, ptr noundef %3, ptr noundef %4, i32 noundef %5, i32 noundef %6) #0 {
  %8 = alloca ptr, align 8
  %9 = alloca i32, align 4
  %10 = alloca i32, align 4
  %11 = alloca ptr, align 8
  %12 = alloca ptr, align 8
  %13 = alloca i32, align 4
  %14 = alloca i32, align 4
  store ptr %0, ptr %8, align 8
  store i32 %1, ptr %9, align 4
  store i32 %2, ptr %10, align 4
  store ptr %3, ptr %11, align 8
  store ptr %4, ptr %12, align 8
  store i32 %5, ptr %13, align 4
  store i32 %6, ptr %14, align 4
  %15 = load i32, ptr %10, align 4
  %16 = load ptr, ptr %8, align 8
  %17 = getelementptr inbounds %struct.cli_bc_ctx, ptr %16, i32 0, i32 20
  store i32 %15, ptr %17, align 8
  %18 = load ptr, ptr %11, align 8
  %19 = load ptr, ptr %8, align 8
  %20 = getelementptr inbounds %struct.cli_bc_ctx, ptr %19, i32 0, i32 21
  store ptr %18, ptr %20, align 8
  %21 = load ptr, ptr %12, align 8
  %22 = load ptr, ptr %8, align 8
  %23 = getelementptr inbounds %struct.cli_bc_ctx, ptr %22, i32 0, i32 22
  store ptr %21, ptr %23, align 8
  %24 = load i32, ptr %13, align 4
  %25 = load ptr, ptr %8, align 8
  %26 = getelementptr inbounds %struct.cli_bc_ctx, ptr %25, i32 0, i32 23
  store i32 %24, ptr %26, align 8
  %27 = load i32, ptr %14, align 4
  %28 = load ptr, ptr %8, align 8
  %29 = getelementptr inbounds %struct.cli_bc_ctx, ptr %28, i32 0, i32 24
  store i32 %27, ptr %29, align 4
  %30 = load i32, ptr %9, align 4
  %31 = load ptr, ptr %8, align 8
  %32 = getelementptr inbounds %struct.cli_bc_ctx, ptr %31, i32 0, i32 25
  store i32 %30, ptr %32, align 8
  ret i32 0
}