; Function Attrs: mustprogress nofree norecurse nosync nounwind willreturn memory(argmem: write) uwtable
define noundef i32 @cli_bytecode_context_setpdf(ptr nocapture noundef writeonly %0, i32 noundef %1, i32 noundef %2, ptr noundef %3, ptr noundef %4, i32 noundef %5, i32 noundef %6) local_unnamed_addr #14 {
  %8 = getelementptr inbounds i8, ptr %0, i64 1024
  store i32 %2, ptr %8, align 8
  %9 = getelementptr inbounds i8, ptr %0, i64 1032
  store ptr %3, ptr %9, align 8
  %10 = getelementptr inbounds i8, ptr %0, i64 1040
  store ptr %4, ptr %10, align 8
  %11 = getelementptr inbounds i8, ptr %0, i64 1048
  store i32 %5, ptr %11, align 8
  %12 = getelementptr inbounds i8, ptr %0, i64 1052
  store i32 %6, ptr %12, align 4
  %13 = getelementptr inbounds i8, ptr %0, i64 1056
  store i32 %1, ptr %13, align 8
  ret i32 0
}